Certificate:
    Data:
        Version: 3 (0x2)
        Serial Number:
            36:82:5e:7f:b5:a4:81:93:7e:f6:d1:73:6b:b9:3c:a6
        Signature Algorithm: sha384WithRSAEncryption
        Issuer: C = GB, ST = Greater Manchester, L = Salford, O = COMODO CA Limited, CN = COMODO RSA Certification Authority
        Validity
            Not Before: Feb 12 00:00:00 2014 GMT
            Not After : Feb 11 23:59:59 2029 GMT
        Subject: C = GB, ST = Greater Manchester, L = Salford, O = COMODO CA Limited, CN = COMODO RSA Organization Validation Secure Server CA
        Subject Public Key Info:
            Public Key Algorithm: rsaEncryption
                RSA Public-Key: (2048 bit)
                Modulus:
                    00:b9:14:d9:85:f2:41:44:57:ff:30:44:1e:dc:3c:
                    44:a3:17:b8:6e:01:f8:a3:5f:c2:a9:21:1d:ce:59:
                    f4:ec:f3:88:a9:09:32:3c:b1:8b:63:a4:3e:27:36:
                    f3:8f:f9:38:66:2e:07:97:41:8f:4b:a6:dd:c3:5f:
                    9e:73:3c:e7:ca:20:0d:4f:7c:32:05:cf:c1:2e:48:
                    65:4a:85:d0:1f:56:31:6d:8e:e5:c6:32:d4:1b:bc:
                    9f:7d:96:fc:98:d7:4f:f8:f4:58:56:f8:e3:45:be:
                    91:18:82:e4:8a:be:af:cd:52:37:51:87:4f:1e:97:
                    c1:e8:3a:ae:f9:ff:46:e4:65:3f:3f:c3:47:83:2f:
                    cc:b8:42:5e:2d:7e:f7:5a:68:ae:5d:4b:c0:a6:35:
                    21:f5:86:a3:c8:49:8b:98:63:60:0d:c9:21:48:c2:
                    92:30:65:46:b2:86:35:04:42:25:7e:ad:a7:4e:4b:
                    12:40:00:7a:88:68:5c:6f:9f:a3:a4:78:11:21:ae:
                    3d:0b:0e:be:45:14:23:cf:eb:75:d7:f6:a0:f1:bc:
                    45:6c:5e:bc:a1:32:ec:f3:58:78:42:28:0b:3a:01:
                    76:f0:c5:a0:9e:c1:69:70:de:8f:4b:a6:79:df:f2:
                    76:b6:e3:0f:13:7c:18:3b:b1:51:6c:6a:20:39:ce:
                    9e:69
                Exponent: 65537 (0x10001)
        X509v3 extensions:
            X509v3 Authority Key Identifier: 
                keyid:BB:AF:7E:02:3D:FA:A6:F1:3C:84:8E:AD:EE:38:98:EC:D9:32:32:D4

            X509v3 Subject Key Identifier: 
                9A:F3:2B:DA:CF:AD:4F:B6:2F:BB:2A:48:48:2A:12:B7:1B:42:C1:24
            X509v3 Key Usage: critical
                Digital Signature, Certificate Sign, CRL Sign
            X509v3 Basic Constraints: critical
                CA:TRUE, pathlen:0
            X509v3 Extended Key Usage: 
                TLS Web Server Authentication, TLS Web Client Authentication
            X509v3 Certificate Policies: 
                Policy: X509v3 Any Policy
                Policy: 2.23.140.1.2.2

            X509v3 CRL Distribution Points: 

                Full Name:
                  URI:http://crl.comodoca.com/COMODORSACertificationAuthority.crl

            Authority Information Access: 
                CA Issuers - URI:http://crt.comodoca.com/COMODORSAAddTrustCA.crt
                OCSP - URI:http://ocsp.comodoca.com

    Signature Algorithm: sha384WithRSAEncryption
         69:8a:36:68:9a:1e:3b:65:0b:e0:7c:cf:a6:ab:71:3b:af:61:
         a4:3f:e4:64:01:49:10:d3:1d:8f:e2:d5:ed:67:d3:9e:5b:97:
         bd:42:1e:07:f9:d0:bb:6d:f7:32:95:5a:22:29:62:f8:0c:9c:
         59:56:27:36:a0:22:12:11:fa:47:f4:51:c9:59:7b:29:4a:a5:
         48:35:7c:c5:97:66:e0:27:25:3b:15:7a:32:75:4a:91:fb:a6:
         6b:9e:e2:53:fa:0d:8c:13:fb:23:b8:0b:12:2c:ae:ed:db:1d:
         47:90:d5:d0:93:69:76:91:38:15:34:d7:18:ea:7e:bc:6b:58:
         de:2a:39:90:03:44:04:4a:56:d8:68:e5:f5:7c:69:7e:9e:7d:
         54:4b:d0:d8:86:ab:67:66:13:57:5e:89:2a:17:ad:2d:ae:bd:
         40:0e:66:ed:8a:ff:54:b4:c1:01:cb:a9:e0:47:ba:11:61:8f:
         ad:ae:23:48:2a:c6:25:79:89:1c:41:04:95:c0:11:ea:57:2b:
         d6:b4:97:fa:b1:e9:15:62:ec:4a:71:77:fd:f3:a1:9c:da:f6:
         6b:00:29:c5:32:e7:fa:4e:ea:b3:2a:a7:18:97:1c:58:a7:42:
         36:5f:ec:14:cf:f8:7b:0e:f7:dd:cc:88:15:9a:9a:5c:c8:f1:
         20:c7:d1:86:72:a1:17:9b:ae:ba:fe:6c:a8:32:d1:00:76:49:
         73:f7:3f:27:87:3c:b6:c9:2d:fa:aa:90:90:c9:0a:09:9f:c9:
         69:1f:07:19:a9:bf:de:ba:f8:0b:88:82:44:16:10:7f:07:c0:
         80:22:5f:7f:bc:30:de:ba:cd:07:79:64:56:d8:ff:f3:4f:9c:
         30:bb:6e:1e:51:4b:e6:cd:bd:17:c4:c5:bf:c8:3f:8e:b1:1f:
         8a:46:b7:06:43:6f:62:2d:cf:51:9d:45:ca:8a:e9:13:8b:c0:
         c7:91:be:5b:b6:fa:37:4a:89:fe:f0:9d:da:13:26:22:2c:06:
         90:3e:8b:13:98:a0:19:d6:dd:da:4a:48:7f:3d:0f:89:9d:24:
         72:4b:0e:7b:44:ff:d4:36:b6:83:76:23:58:8b:14:6c:b8:5d:
         f7:61:6d:39:76:ed:dd:12:3d:6b:87:88:97:91:be:c0:46:02:
         1e:76:1c:dd:b6:af:5c:4f:f5:00:d6:9c:4d:a9:e0:9e:a2:8e:
         fc:b1:16:79:5c:21:d3:45:81:9a:0c:39:6c:6d:28:d7:25:d2:
         b7:11:90:d0:f6:de:6f:5e:f4:fa:a4:8b:66:77:72:2f:9b:90:
         40:2c:52:12:60:f9:ff:b5:70:2e:89:9a:79:09:89:81:2d:ec:
         5c:78:6f:81:87:f1:fc:55
-----BEGIN CERTIFICATE-----
MIIGDjCCA/agAwIBAgIQNoJef7WkgZN+9tFza7k8pjANBgkqhkiG9w0BAQwFADCB
hTELMAkGA1UEBhMCR0IxGzAZBgNVBAgTEkdyZWF0ZXIgTWFuY2hlc3RlcjEQMA4G
A1UEBxMHU2FsZm9yZDEaMBgGA1UEChMRQ09NT0RPIENBIExpbWl0ZWQxKzApBgNV
BAMTIkNPTU9ETyBSU0EgQ2VydGlmaWNhdGlvbiBBdXRob3JpdHkwHhcNMTQwMjEy
MDAwMDAwWhcNMjkwMjExMjM1OTU5WjCBljELMAkGA1UEBhMCR0IxGzAZBgNVBAgT
EkdyZWF0ZXIgTWFuY2hlc3RlcjEQMA4GA1UEBxMHU2FsZm9yZDEaMBgGA1UEChMR
Q09NT0RPIENBIExpbWl0ZWQxPDA6BgNVBAMTM0NPTU9ETyBSU0EgT3JnYW5pemF0
aW9uIFZhbGlkYXRpb24gU2VjdXJlIFNlcnZlciBDQTCCASIwDQYJKoZIhvcNAQEB
BQADggEPADCCAQoCggEBALkU2YXyQURX/zBEHtw8RKMXuG4B+KNfwqkhHc5Z9Ozz
iKkJMjyxi2OkPic284/5OGYuB5dBj0um3cNfnnM858ogDU98MgXPwS5IZUqF0B9W
MW2O5cYy1Bu8n32W/JjXT/j0WFb440W+kRiC5Iq+r81SN1GHTx6Xweg6rvn/RuRl
Pz/DR4MvzLhCXi1+91porl1LwKY1IfWGo8hJi5hjYA3JIUjCkjBlRrKGNQRCJX6t
p05LEkAAeohoXG+fo6R4ESGuPQsOvkUUI8/rddf2oPG8RWxevKEy7PNYeEIoCzoB
dvDFoJ7BaXDej0umed/ydrbjDxN8GDuxUWxqIDnOnmkCAwEAAaOCAWUwggFhMB8G
A1UdIwQYMBaAFLuvfgI9+qbxPISOre44mOzZMjLUMB0GA1UdDgQWBBSa8yvaz61P
ti+7KkhIKhK3G0LBJDAOBgNVHQ8BAf8EBAMCAYYwEgYDVR0TAQH/BAgwBgEB/wIB
ADAdBgNVHSUEFjAUBggrBgEFBQcDAQYIKwYBBQUHAwIwGwYDVR0gBBQwEjAGBgRV
HSAAMAgGBmeBDAECAjBMBgNVHR8ERTBDMEGgP6A9hjtodHRwOi8vY3JsLmNvbW9k
b2NhLmNvbS9DT01PRE9SU0FDZXJ0aWZpY2F0aW9uQXV0aG9yaXR5LmNybDBxBggr
BgEFBQcBAQRlMGMwOwYIKwYBBQUHMAKGL2h0dHA6Ly9jcnQuY29tb2RvY2EuY29t
L0NPTU9ET1JTQUFkZFRydXN0Q0EuY3J0MCQGCCsGAQUFBzABhhhodHRwOi8vb2Nz
cC5jb21vZG9jYS5jb20wDQYJKoZIhvcNAQEMBQADggIBAGmKNmiaHjtlC+B8z6ar
cTuvYaQ/5GQBSRDTHY/i1e1n055bl71CHgf50Ltt9zKVWiIpYvgMnFlWJzagIhIR
+kf0UclZeylKpUg1fMWXZuAnJTsVejJ1SpH7pmue4lP6DYwT+yO4CxIsru3bHUeQ
1dCTaXaROBU01xjqfrxrWN4qOZADRARKVtho5fV8aX6efVRL0NiGq2dmE1deiSoX
rS2uvUAOZu2K/1S0wQHLqeBHuhFhj62uI0gqxiV5iRxBBJXAEepXK9a0l/qx6RVi
7Epxd/3zoZza9msAKcUy5/pO6rMqpxiXHFinQjZf7BTP+HsO993MiBWamlzI8SDH
0YZyoRebrrr+bKgy0QB2SXP3PyeHPLbJLfqqkJDJCgmfyWkfBxmpv966+AuIgkQW
EH8HwIAiX3+8MN66zQd5ZFbY//NPnDC7bh5RS+bNvRfExb/IP46xH4pGtwZDb2It
z1GdRcqK6ROLwMeRvlu2+jdKif7wndoTJiIsBpA+ixOYoBnW3dpKSH89D4mdJHJL
DntE/9Q2toN2I1iLFGy4XfdhbTl27d0SPWuHiJeRvsBGAh52HN22r1xP9QDWnE2p
4J6ijvyxFnlcIdNFgZoMOWxtKNcl0rcRkND23m9e9Pqki2Z3ci+bkEAsUhJg+f+1
cC6JmnkJiYEt7Fx4b4GH8fxV
-----END CERTIFICATE-----
